target datalayout = "e-m:e-p270:32:32-p271:32:32-p272:64:64-i64:64-i128:128-f80:128-n8:16:32:64-S128"
target triple = "x86_64-pc-linux-gnu"

%struct.pmix_byte_object = type { ptr, i64 }

; Function Attrs: inlinehint nounwind uwtable
define internal void @pmix_bfrops_base_tma_data_buffer_load(ptr noundef %0, ptr noundef %1, i64 noundef %2, ptr noundef %3) #1 {
  %5 = alloca ptr, align 8
  %6 = alloca ptr, align 8
  %7 = alloca i64, align 8
  %8 = alloca ptr, align 8
  %9 = alloca %struct.pmix_byte_object, align 8
  store ptr %0, ptr %5, align 8, !tbaa !126
  store ptr %1, ptr %6, align 8, !tbaa !3
  store i64 %2, ptr %7, align 8, !tbaa !30
  store ptr %3, ptr %8, align 8, !tbaa !8
  call void @llvm.lifetime.start.p0(i64 16, ptr %9) #15
  %10 = load ptr, ptr %6, align 8, !tbaa !3
  %11 = getelementptr inbounds nuw %struct.pmix_byte_object, ptr %9, i32 0, i32 0
  store ptr %10, ptr %11, align 8, !tbaa !107
  %12 = load i64, ptr %7, align 8, !tbaa !30
  %13 = getelementptr inbounds nuw %struct.pmix_byte_object, ptr %9, i32 0, i32 1
  store i64 %12, ptr %13, align 8, !tbaa !109
  %14 = load ptr, ptr %5, align 8, !tbaa !126
  %15 = call i32 @PMIx_Data_load(ptr noundef %14, ptr noundef %9)
  call void @llvm.lifetime.end.p0(i64 16, ptr %9) #15
  ret void
}

; Function Attrs: nounwind uwtable
define void @PMIx_Data_buffer_load(ptr noundef %0, ptr noundef %1, i64 noundef %2) #0 {
  %4 = alloca ptr, align 8
  %5 = alloca ptr, align 8
  %6 = alloca i64, align 8
  store ptr %0, ptr %4, align 8, !tbaa !126
  store ptr %1, ptr %5, align 8, !tbaa !3
  store i64 %2, ptr %6, align 8, !tbaa !30
  %7 = load ptr, ptr %4, align 8, !tbaa !126
  %8 = load ptr, ptr %5, align 8, !tbaa !3
  %9 = load i64, ptr %6, align 8, !tbaa !30
  call void @pmix_bfrops_base_tma_data_buffer_load(ptr noundef %7, ptr noundef %8, i64 noundef %9, ptr noundef null)
  ret void
}