; Function Attrs: nounwind uwtable
define void @PMIx_Data_buffer_load(ptr noundef %0, ptr noundef %1, i64 noundef %2) local_unnamed_addr #6 {
  %4 = alloca %struct.pmix_byte_object, align 8
  call void @llvm.lifetime.start.p0(i64 16, ptr nonnull %4) #44
  store ptr %1, ptr %4, align 8, !tbaa !93
  %5 = getelementptr inbounds nuw i8, ptr %4, i64 8
  store i64 %2, ptr %5, align 8, !tbaa !102
  %6 = call i32 @PMIx_Data_load(ptr noundef %0, ptr noundef nonnull %4) #44
  call void @llvm.lifetime.end.p0(i64 16, ptr nonnull %4) #44
  ret void
}